target datalayout = "e-m:e-p270:32:32-p271:32:32-p272:64:64-i64:64-i128:128-f80:128-n8:16:32:64-S128"
target triple = "x86_64-pc-linux-gnu"

%struct.H5C_class_t = type { i32, ptr, i32, i32, ptr, ptr, ptr, ptr, ptr, ptr, ptr, ptr, ptr, ptr }
%struct.H5B2_hdr_t = type { %struct.H5C_cache_entry_t, %struct.H5B2_node_ptr_t, i8, i8, i32, i32, i16, i8, ptr, i64, i64, i64, i64, i8, i8, i8, ptr, ptr, ptr, ptr, ptr, ptr, ptr, i8, ptr, ptr, i64, ptr, ptr }
%struct.H5C_cache_entry_t = type { ptr, i64, i64, ptr, i8, ptr, i8, i8, i8, i8, i32, i8, i8, i8, i8, i8, i32, ptr, i32, i32, i32, i32, i32, i8, i8, ptr, ptr, ptr, ptr, ptr, ptr, i8, i32, i8, i64, ptr, i64, i64, i32, i8, i32, i32, i8, ptr, ptr, ptr }
%struct.H5B2_node_ptr_t = type { i64, i16, i64 }
%struct.H5B2_hdr_cache_ud_t = type { ptr, i64, ptr }

@.str.1 = private unnamed_addr constant [101 x i8] c"generated/home/dtcxzyw/WorkSpace/Projects/compilers/llvm-opt-benchmark/bench/hdf5/hdf5/src/H5B2hdr.c\00", align 1
@H5E_BTREE_g = external global i64, align 8
@H5E_CANTCREATE_g = external global i64, align 8
@.str.11 = private unnamed_addr constant [29 x i8] c"can't create v2 B-tree proxy\00", align 1
@H5AC_BT2_HDR = external constant [1 x %struct.H5C_class_t], align 16
@H5E_CANTSET_g = external global i64, align 8
@__func__.H5B2__hdr_protect = private unnamed_addr constant [18 x i8] c"H5B2__hdr_protect\00", align 1
@H5E_CANTPROTECT_g = external global i64, align 8
@.str.20 = private unnamed_addr constant [48 x i8] c"unable to load v2 B-tree header, address = %llu\00", align 1
@.str.21 = private unnamed_addr constant [49 x i8] c"unable to add v2 B-tree header as child of proxy\00", align 1
@H5E_CANTUNPROTECT_g = external global i64, align 8
@.str.22 = private unnamed_addr constant [53 x i8] c"unable to unprotect v2 B-tree header, address = %llu\00", align 1

; Function Attrs: nounwind uwtable
define ptr @H5B2__hdr_protect(ptr noundef %0, i64 noundef %1, ptr noundef %2, i32 noundef %3) #0 {
  %5 = alloca ptr, align 8
  %6 = alloca i64, align 8
  %7 = alloca ptr, align 8
  %8 = alloca i32, align 4
  %9 = alloca %struct.H5B2_hdr_cache_ud_t, align 8
  %10 = alloca ptr, align 8
  %11 = alloca ptr, align 8
  %12 = alloca i8, align 1
  store ptr %0, ptr %5, align 8
  store i64 %1, ptr %6, align 8
  store ptr %2, ptr %7, align 8
  store i32 %3, ptr %8, align 4
  store ptr null, ptr %10, align 8
  store ptr null, ptr %11, align 8
  store i8 0, ptr %12, align 1
  %13 = load ptr, ptr %5, align 8
  %14 = getelementptr inbounds %struct.H5B2_hdr_cache_ud_t, ptr %9, i32 0, i32 0
  store ptr %13, ptr %14, align 8
  %15 = load i64, ptr %6, align 8
  %16 = getelementptr inbounds %struct.H5B2_hdr_cache_ud_t, ptr %9, i32 0, i32 1
  store i64 %15, ptr %16, align 8
  %17 = load ptr, ptr %7, align 8
  %18 = getelementptr inbounds %struct.H5B2_hdr_cache_ud_t, ptr %9, i32 0, i32 2
  store ptr %17, ptr %18, align 8
  %19 = load ptr, ptr %5, align 8
  %20 = load i64, ptr %6, align 8
  %21 = load i32, ptr %8, align 4
  %22 = call ptr @H5AC_protect(ptr noundef %19, ptr noundef @H5AC_BT2_HDR, i64 noundef %20, ptr noundef %9, i32 noundef %21)
  store ptr %22, ptr %10, align 8
  %23 = icmp eq ptr null, %22
  br i1 %23, label %24, label %40

24:                                               ; preds = %4
  br label %25

25:                                               ; preds = %24
  br label %26

26:                                               ; preds = %25
  br label %27

27:                                               ; preds = %26
  %28 = load i64, ptr @H5E_BTREE_g, align 8
  %29 = load i64, ptr @H5E_CANTPROTECT_g, align 8
  %30 = load i64, ptr %6, align 8
  %31 = call i32 (ptr, ptr, i32, i64, i64, ptr, ...) @H5E_printf_stack(ptr noundef @.str.1, ptr noundef @__func__.H5B2__hdr_protect, i32 noundef 502, i64 noundef %28, i64 noundef %29, ptr noundef @.str.20, i64 noundef %30)
  br label %32

32:                                               ; preds = %27
  store i8 1, ptr %12, align 1
  %33 = load i8, ptr %12, align 1
  %34 = trunc i8 %33 to i1
  %35 = zext i1 %34 to i8
  store i8 %35, ptr %12, align 1
  br label %36

36:                                               ; preds = %32
  br label %37

37:                                               ; preds = %36
  store ptr null, ptr %11, align 8
  br label %99

38:                                               ; No predecessors!
  br label %39

39:                                               ; preds = %38
  br label %40

40:                                               ; preds = %39, %4
  %41 = load ptr, ptr %5, align 8
  %42 = load ptr, ptr %10, align 8
  %43 = getelementptr inbounds %struct.H5B2_hdr_t, ptr %42, i32 0, i32 8
  store ptr %41, ptr %43, align 8
  %44 = load ptr, ptr %10, align 8
  %45 = getelementptr inbounds %struct.H5B2_hdr_t, ptr %44, i32 0, i32 23
  %46 = load i8, ptr %45, align 8
  %47 = trunc i8 %46 to i1
  br i1 %47, label %48, label %97

48:                                               ; preds = %40
  %49 = load ptr, ptr %10, align 8
  %50 = getelementptr inbounds %struct.H5B2_hdr_t, ptr %49, i32 0, i32 24
  %51 = load ptr, ptr %50, align 8
  %52 = icmp eq ptr null, %51
  br i1 %52, label %53, label %97

53:                                               ; preds = %48
  %54 = call ptr @H5AC_proxy_entry_create()
  %55 = load ptr, ptr %10, align 8
  %56 = getelementptr inbounds %struct.H5B2_hdr_t, ptr %55, i32 0, i32 24
  store ptr %54, ptr %56, align 8
  %57 = icmp eq ptr null, %54
  br i1 %57, label %58, label %73

58:                                               ; preds = %53
  br label %59

59:                                               ; preds = %58
  br label %60

60:                                               ; preds = %59
  br label %61

61:                                               ; preds = %60
  %62 = load i64, ptr @H5E_BTREE_g, align 8
  %63 = load i64, ptr @H5E_CANTCREATE_g, align 8
  %64 = call i32 (ptr, ptr, i32, i64, i64, ptr, ...) @H5E_printf_stack(ptr noundef @.str.1, ptr noundef @__func__.H5B2__hdr_protect, i32 noundef 509, i64 noundef %62, i64 noundef %63, ptr noundef @.str.11)
  br label %65

65:                                               ; preds = %61
  store i8 1, ptr %12, align 1
  %66 = load i8, ptr %12, align 1
  %67 = trunc i8 %66 to i1
  %68 = zext i1 %67 to i8
  store i8 %68, ptr %12, align 1
  br label %69

69:                                               ; preds = %65
  br label %70

70:                                               ; preds = %69
  store ptr null, ptr %11, align 8
  br label %99

71:                                               ; No predecessors!
  br label %72

72:                                               ; preds = %71
  br label %73

73:                                               ; preds = %72, %53
  %74 = load ptr, ptr %10, align 8
  %75 = getelementptr inbounds %struct.H5B2_hdr_t, ptr %74, i32 0, i32 24
  %76 = load ptr, ptr %75, align 8
  %77 = load ptr, ptr %5, align 8
  %78 = load ptr, ptr %10, align 8
  %79 = call i32 @H5AC_proxy_entry_add_child(ptr noundef %76, ptr noundef %77, ptr noundef %78)
  %80 = icmp slt i32 %79, 0
  br i1 %80, label %81, label %96

81:                                               ; preds = %73
  br label %82

82:                                               ; preds = %81
  br label %83

83:                                               ; preds = %82
  br label %84

84:                                               ; preds = %83
  %85 = load i64, ptr @H5E_BTREE_g, align 8
  %86 = load i64, ptr @H5E_CANTSET_g, align 8
  %87 = call i32 (ptr, ptr, i32, i64, i64, ptr, ...) @H5E_printf_stack(ptr noundef @.str.1, ptr noundef @__func__.H5B2__hdr_protect, i32 noundef 513, i64 noundef %85, i64 noundef %86, ptr noundef @.str.21)
  br label %88

88:                                               ; preds = %84
  store i8 1, ptr %12, align 1
  %89 = load i8, ptr %12, align 1
  %90 = trunc i8 %89 to i1
  %91 = zext i1 %90 to i8
  store i8 %91, ptr %12, align 1
  br label %92

92:                                               ; preds = %88
  br label %93

93:                                               ; preds = %92
  store ptr null, ptr %11, align 8
  br label %99

94:                                               ; No predecessors!
  br label %95

95:                                               ; preds = %94
  br label %96

96:                                               ; preds = %95, %73
  br label %97

97:                                               ; preds = %96, %48, %40
  %98 = load ptr, ptr %10, align 8
  store ptr %98, ptr %11, align 8
  br label %99

99:                                               ; preds = %97, %93, %70, %37
  %100 = load ptr, ptr %11, align 8
  %101 = icmp ne ptr %100, null
  br i1 %101, label %128, label %102

102:                                              ; preds = %99
  %103 = load ptr, ptr %10, align 8
  %104 = icmp ne ptr %103, null
  br i1 %104, label %105, label %127

105:                                              ; preds = %102
  %106 = load ptr, ptr %10, align 8
  %107 = getelementptr inbounds %struct.H5B2_hdr_t, ptr %106, i32 0, i32 8
  %108 = load ptr, ptr %107, align 8
  %109 = load i64, ptr %6, align 8
  %110 = load ptr, ptr %10, align 8
  %111 = call i32 @H5AC_unprotect(ptr noundef %108, ptr noundef @H5AC_BT2_HDR, i64 noundef %109, ptr noundef %110, i32 noundef 0)
  %112 = icmp slt i32 %111, 0
  br i1 %112, label %113, label %127

113:                                              ; preds = %105
  br label %114

114:                                              ; preds = %113
  br label %115

115:                                              ; preds = %114
  br label %116

116:                                              ; preds = %115
  %117 = load i64, ptr @H5E_BTREE_g, align 8
  %118 = load i64, ptr @H5E_CANTUNPROTECT_g, align 8
  %119 = load i64, ptr %6, align 8
  %120 = call i32 (ptr, ptr, i32, i64, i64, ptr, ...) @H5E_printf_stack(ptr noundef @.str.1, ptr noundef @__func__.H5B2__hdr_protect, i32 noundef 525, i64 noundef %117, i64 noundef %118, ptr noundef @.str.22, i64 noundef %119)
  br label %121

121:                                              ; preds = %116
  store i8 1, ptr %12, align 1
  %122 = load i8, ptr %12, align 1
  %123 = trunc i8 %122 to i1
  %124 = zext i1 %123 to i8
  store i8 %124, ptr %12, align 1
  br label %125

125:                                              ; preds = %121
  store ptr null, ptr %11, align 8
  br label %126

126:                                              ; preds = %125
  br label %127

127:                                              ; preds = %126, %105, %102
  br label %128

128:                                              ; preds = %127, %99
  %129 = load ptr, ptr %11, align 8
  ret ptr %129
}